target datalayout = "e-m:e-p270:32:32-p271:32:32-p272:64:64-i64:64-i128:128-f80:128-n8:16:32:64-S128"
target triple = "x86_64-pc-linux-gnu"

@.str.53 = private unnamed_addr constant [11 x i8] c"ClamAV %s\0A\00", align 1

; Function Attrs: nounwind uwtable
define internal void @print_server_version(ptr noundef %0) #0 {
  %2 = alloca ptr, align 8
  store ptr %0, ptr %2, align 8
  %3 = load ptr, ptr %2, align 8
  %4 = call i32 @get_clamd_version(ptr noundef %3)
  %5 = icmp ne i32 %4, 0
  br i1 %5, label %6, label %9

6:                                                ; preds = %1
  %7 = call ptr @get_version()
  %8 = call i32 (ptr, ...) @printf(ptr noundef @.str.53, ptr noundef %7)
  br label %9

9:                                                ; preds = %6, %1
  ret void
}