; Function Attrs: nounwind uwtable
define internal fastcc void @print_server_version(ptr noundef %0) unnamed_addr #3 {
  %2 = tail call i32 @get_clamd_version(ptr noundef %0) #7
  %.not = icmp eq i32 %2, 0
  br i1 %.not, label %6, label %3

3:                                                ; preds = %1
  %4 = tail call ptr @get_version() #7
  %5 = tail call i32 (ptr, ...) @printf(ptr noundef nonnull dereferenceable(1) @.str.53, ptr noundef %4)
  br label %6

6:                                                ; preds = %3, %1
  ret void
}